; Function Attrs: mustprogress nounwind uwtable
define dso_local noundef ptr @_ZN5clang11CXXThisExpr11CreateEmptyERKNS_10ASTContextE(ptr noundef nonnull align 8 dereferenceable(23096) %0) local_unnamed_addr #4 align 2 {
  %2 = tail call noundef ptr @_ZN5clang4StmtnwEmRKNS_10ASTContextEj(i64 noundef 16, ptr noundef nonnull align 8 dereferenceable(23096) %0, i32 noundef 8) #16
  store i8 98, ptr %2, align 8
  %3 = load i8, ptr @_ZN5clang4Stmt17StatisticsEnabledE, align 1
  %4 = trunc i8 %3 to i1
  br i1 %4, label %5, label %_ZN5clang11CXXThisExprC2ENS_4Stmt10EmptyShellE.exit

5:                                                ; preds = %1
  tail call void @_ZN5clang4Stmt12addStmtClassENS0_9StmtClassE(i32 noundef 98) #16
  br label %_ZN5clang11CXXThisExprC2ENS_4Stmt10EmptyShellE.exit

_ZN5clang11CXXThisExprC2ENS_4Stmt10EmptyShellE.exit: ; preds = %1, %5
  %6 = getelementptr inbounds nuw i8, ptr %2, i64 8
  store i64 0, ptr %6, align 8
  ret ptr %2
}